#include <math.h>
#include <stdio.h>
#include <stdlib.h>
#include <string.h>


int main(int argc, char* argv[])
{
	int n,i,j,a,b,s;
	a=4;
	int p[1000][1000];
	scanf("%d",&n);
	for(i=0;i<n;i++){
		for(j=0;j<n-1;j++){
			scanf("%d ",&p[i][j]);
			if(p[i][j]==0){
				a++;
			}
			else a=a;
		}
		scanf("%d\n",&p[i][n-1]);
	}
	b=a/4;
	s=(b-2)*(b-2);
	printf("%d",s);
	return 0;
}

