; ModuleID = 'source-C-CXX/14/65.c'
source_filename = "source-C-CXX/14/65.c"
target datalayout = "e-m:e-p270:32:32-p271:32:32-p272:64:64-i64:64-f80:128-n8:16:32:64-S128"
target triple = "x86_64-pc-linux-gnu"

@.str = private unnamed_addr constant [3 x i8] c"%d\00", align 1
@.str.1 = private unnamed_addr constant [4 x i8] c"%d \00", align 1
@.str.2 = private unnamed_addr constant [4 x i8] c"%d\0A\00", align 1

; Function Attrs: nofree nounwind sspstrong uwtable
define dso_local i32 @main(i32 %0, i8** nocapture readnone %1) local_unnamed_addr #0 {
  %3 = alloca i32, align 4
  %4 = alloca [1000 x [1000 x i32]], align 16
  %5 = bitcast i32* %3 to i8*
  call void @llvm.lifetime.start.p0i8(i64 4, i8* nonnull %5) #3
  %6 = bitcast [1000 x [1000 x i32]]* %4 to i8*
  call void @llvm.lifetime.start.p0i8(i64 4000000, i8* nonnull %6) #3
  %7 = call i32 (i8*, ...) @__isoc99_scanf(i8* getelementptr inbounds ([3 x i8], [3 x i8]* @.str, i64 0, i64 0), i32* nonnull %3)
  %8 = load i32, i32* %3, align 4, !tbaa !5
  %9 = icmp sgt i32 %8, 0
  br i1 %9, label %10, label %41

10:                                               ; preds = %2, %32
  %11 = phi i32 [ %38, %32 ], [ %8, %2 ]
  %12 = phi i64 [ %37, %32 ], [ 0, %2 ]
  %13 = phi i32 [ %34, %32 ], [ 4, %2 ]
  %14 = icmp sgt i32 %11, 1
  br i1 %14, label %18, label %15

15:                                               ; preds = %10
  %16 = add nsw i32 %11, -1
  %17 = sext i32 %16 to i64
  br label %32

18:                                               ; preds = %10, %18
  %19 = phi i64 [ %27, %18 ], [ 0, %10 ]
  %20 = phi i32 [ %26, %18 ], [ %13, %10 ]
  %21 = getelementptr inbounds [1000 x [1000 x i32]], [1000 x [1000 x i32]]* %4, i64 0, i64 %12, i64 %19
  %22 = call i32 (i8*, ...) @__isoc99_scanf(i8* getelementptr inbounds ([4 x i8], [4 x i8]* @.str.1, i64 0, i64 0), i32* nonnull %21)
  %23 = load i32, i32* %21, align 4, !tbaa !5
  %24 = icmp eq i32 %23, 0
  %25 = zext i1 %24 to i32
  %26 = add nsw i32 %20, %25
  %27 = add nuw nsw i64 %19, 1
  %28 = load i32, i32* %3, align 4, !tbaa !5
  %29 = add nsw i32 %28, -1
  %30 = sext i32 %29 to i64
  %31 = icmp slt i64 %27, %30
  br i1 %31, label %18, label %32, !llvm.loop !9

32:                                               ; preds = %18, %15
  %33 = phi i64 [ %17, %15 ], [ %30, %18 ]
  %34 = phi i32 [ %13, %15 ], [ %26, %18 ]
  %35 = getelementptr inbounds [1000 x [1000 x i32]], [1000 x [1000 x i32]]* %4, i64 0, i64 %12, i64 %33
  %36 = call i32 (i8*, ...) @__isoc99_scanf(i8* getelementptr inbounds ([4 x i8], [4 x i8]* @.str.2, i64 0, i64 0), i32* nonnull %35)
  %37 = add nuw nsw i64 %12, 1
  %38 = load i32, i32* %3, align 4, !tbaa !5
  %39 = sext i32 %38 to i64
  %40 = icmp slt i64 %37, %39
  br i1 %40, label %10, label %41, !llvm.loop !11

41:                                               ; preds = %32, %2
  %42 = phi i32 [ 4, %2 ], [ %34, %32 ]
  %43 = sdiv i32 %42, 4
  %44 = add nsw i32 %43, -2
  %45 = mul nsw i32 %44, %44
  %46 = call i32 (i8*, ...) @printf(i8* nonnull dereferenceable(1) getelementptr inbounds ([3 x i8], [3 x i8]* @.str, i64 0, i64 0), i32 %45)
  call void @llvm.lifetime.end.p0i8(i64 4000000, i8* nonnull %6) #3
  call void @llvm.lifetime.end.p0i8(i64 4, i8* nonnull %5) #3
  ret i32 0
}

; Function Attrs: argmemonly mustprogress nofree nosync nounwind willreturn
declare void @llvm.lifetime.start.p0i8(i64 immarg, i8* nocapture) #1

; Function Attrs: nofree nounwind
declare noundef i32 @__isoc99_scanf(i8* nocapture noundef readonly, ...) local_unnamed_addr #2

; Function Attrs: nofree nounwind
declare noundef i32 @printf(i8* nocapture noundef readonly, ...) local_unnamed_addr #2

; Function Attrs: argmemonly mustprogress nofree nosync nounwind willreturn
declare void @llvm.lifetime.end.p0i8(i64 immarg, i8* nocapture) #1


!llvm.module.flags = !{!0, !1, !2, !3}
!llvm.ident = !{!4}

!0 = !{i32 1, !"wchar_size", i32 4}
!1 = !{i32 7, !"PIC Level", i32 2}
!2 = !{i32 7, !"PIE Level", i32 2}
!3 = !{i32 7, !"uwtable", i32 1}
!4 = !{!"clang version 13.0.0"}
!5 = !{!6, !6, i64 0}
!6 = !{!"int", !7, i64 0}
!7 = !{!"omnipotent char", !8, i64 0}
!8 = !{!"Simple C/C++ TBAA"}
!9 = distinct !{!9, !10}
!10 = !{!"llvm.loop.mustprogress"}
!11 = distinct !{!11, !10}
